target datalayout = "e-m:e-p270:32:32-p271:32:32-p272:64:64-i64:64-i128:128-f80:128-n8:16:32:64-S128"
target triple = "x86_64-pc-linux-gnu"

%struct.Io_ReadBlif_t_ = type { ptr, ptr, ptr, ptr, i32, ptr, ptr, ptr, ptr, ptr, ptr, ptr, float, float, float, float, float, float, float, float, i32, i32, i32, i32, ptr, [1000 x i8], i32 }
%struct.Vec_Ptr_t_ = type { i32, i32, ptr }

@.str.59 = private unnamed_addr constant [56 x i8] c"Wrong number of arguments on .default_input_drive line.\00", align 1
@.str.60 = private unnamed_addr constant [70 x i8] c"Bad value (%s %s) for rise or fall time on .default_input_drive line.\00", align 1
@.str.68 = private unnamed_addr constant [8 x i8] c"%s: %s\0A\00", align 1
@.str.69 = private unnamed_addr constant [18 x i8] c"%s (line %d): %s\0A\00", align 1

; Function Attrs: nounwind uwtable
define internal void @Io_ReadBlifPrintErrorMessage(ptr noundef %0) #0 {
  %2 = alloca ptr, align 8
  store ptr %0, ptr %2, align 8, !tbaa !10
  %3 = load ptr, ptr %2, align 8, !tbaa !10
  %4 = getelementptr inbounds nuw %struct.Io_ReadBlif_t_, ptr %3, i32 0, i32 26
  store i32 1, ptr %4, align 8, !tbaa !53
  %5 = load ptr, ptr %2, align 8, !tbaa !10
  %6 = getelementptr inbounds nuw %struct.Io_ReadBlif_t_, ptr %5, i32 0, i32 4
  %7 = load i32, ptr %6, align 8, !tbaa !48
  %8 = icmp eq i32 %7, 0
  br i1 %8, label %9, label %20

9:                                                ; preds = %1
  %10 = load ptr, ptr %2, align 8, !tbaa !10
  %11 = getelementptr inbounds nuw %struct.Io_ReadBlif_t_, ptr %10, i32 0, i32 24
  %12 = load ptr, ptr %11, align 8, !tbaa !37
  %13 = load ptr, ptr %2, align 8, !tbaa !10
  %14 = getelementptr inbounds nuw %struct.Io_ReadBlif_t_, ptr %13, i32 0, i32 0
  %15 = load ptr, ptr %14, align 8, !tbaa !31
  %16 = load ptr, ptr %2, align 8, !tbaa !10
  %17 = getelementptr inbounds nuw %struct.Io_ReadBlif_t_, ptr %16, i32 0, i32 25
  %18 = getelementptr inbounds [1000 x i8], ptr %17, i64 0, i64 0
  %19 = call i32 (ptr, ptr, ...) @fprintf(ptr noundef %12, ptr noundef @.str.68, ptr noundef %15, ptr noundef %18) #10
  br label %34

20:                                               ; preds = %1
  %21 = load ptr, ptr %2, align 8, !tbaa !10
  %22 = getelementptr inbounds nuw %struct.Io_ReadBlif_t_, ptr %21, i32 0, i32 24
  %23 = load ptr, ptr %22, align 8, !tbaa !37
  %24 = load ptr, ptr %2, align 8, !tbaa !10
  %25 = getelementptr inbounds nuw %struct.Io_ReadBlif_t_, ptr %24, i32 0, i32 0
  %26 = load ptr, ptr %25, align 8, !tbaa !31
  %27 = load ptr, ptr %2, align 8, !tbaa !10
  %28 = getelementptr inbounds nuw %struct.Io_ReadBlif_t_, ptr %27, i32 0, i32 4
  %29 = load i32, ptr %28, align 8, !tbaa !48
  %30 = load ptr, ptr %2, align 8, !tbaa !10
  %31 = getelementptr inbounds nuw %struct.Io_ReadBlif_t_, ptr %30, i32 0, i32 25
  %32 = getelementptr inbounds [1000 x i8], ptr %31, i64 0, i64 0
  %33 = call i32 (ptr, ptr, ...) @fprintf(ptr noundef %23, ptr noundef @.str.69, ptr noundef %26, i32 noundef %29, ptr noundef %32) #10
  br label %34

34:                                               ; preds = %20, %9
  ret void
}

; Function Attrs: nounwind uwtable
define internal i32 @Io_ReadBlifNetworkDefaultInputDrive(ptr noundef %0, ptr noundef %1) #0 {
  %3 = alloca i32, align 4
  %4 = alloca ptr, align 8
  %5 = alloca ptr, align 8
  %6 = alloca ptr, align 8
  %7 = alloca ptr, align 8
  %8 = alloca double, align 8
  %9 = alloca double, align 8
  %10 = alloca i32, align 4
  store ptr %0, ptr %4, align 8, !tbaa !10
  store ptr %1, ptr %5, align 8, !tbaa !70
  call void @llvm.lifetime.start.p0(i64 8, ptr %6) #10
  call void @llvm.lifetime.start.p0(i64 8, ptr %7) #10
  call void @llvm.lifetime.start.p0(i64 8, ptr %8) #10
  call void @llvm.lifetime.start.p0(i64 8, ptr %9) #10
  %11 = load ptr, ptr %5, align 8, !tbaa !70
  %12 = getelementptr inbounds nuw %struct.Vec_Ptr_t_, ptr %11, i32 0, i32 1
  %13 = load i32, ptr %12, align 4, !tbaa !81
  %14 = icmp ne i32 %13, 3
  br i1 %14, label %15, label %27

15:                                               ; preds = %2
  %16 = load ptr, ptr %4, align 8, !tbaa !10
  %17 = getelementptr inbounds nuw %struct.Io_ReadBlif_t_, ptr %16, i32 0, i32 1
  %18 = load ptr, ptr %17, align 8, !tbaa !35
  %19 = call i32 @Extra_FileReaderGetLineNumber(ptr noundef %18, i32 noundef 0)
  %20 = load ptr, ptr %4, align 8, !tbaa !10
  %21 = getelementptr inbounds nuw %struct.Io_ReadBlif_t_, ptr %20, i32 0, i32 4
  store i32 %19, ptr %21, align 8, !tbaa !48
  %22 = load ptr, ptr %4, align 8, !tbaa !10
  %23 = getelementptr inbounds nuw %struct.Io_ReadBlif_t_, ptr %22, i32 0, i32 25
  %24 = getelementptr inbounds [1000 x i8], ptr %23, i64 0, i64 0
  %25 = call i32 (ptr, ptr, ...) @sprintf(ptr noundef %24, ptr noundef @.str.59) #10
  %26 = load ptr, ptr %4, align 8, !tbaa !10
  call void @Io_ReadBlifPrintErrorMessage(ptr noundef %26)
  store i32 1, ptr %3, align 4
  store i32 1, ptr %10, align 4
  br label %82

27:                                               ; preds = %2
  %28 = load ptr, ptr %5, align 8, !tbaa !70
  %29 = getelementptr inbounds nuw %struct.Vec_Ptr_t_, ptr %28, i32 0, i32 2
  %30 = load ptr, ptr %29, align 8, !tbaa !45
  %31 = getelementptr inbounds ptr, ptr %30, i64 1
  %32 = load ptr, ptr %31, align 8, !tbaa !47
  %33 = call double @strtod(ptr noundef %32, ptr noundef %6) #10
  store double %33, ptr %8, align 8, !tbaa !136
  %34 = load ptr, ptr %5, align 8, !tbaa !70
  %35 = getelementptr inbounds nuw %struct.Vec_Ptr_t_, ptr %34, i32 0, i32 2
  %36 = load ptr, ptr %35, align 8, !tbaa !45
  %37 = getelementptr inbounds ptr, ptr %36, i64 2
  %38 = load ptr, ptr %37, align 8, !tbaa !47
  %39 = call double @strtod(ptr noundef %38, ptr noundef %7) #10
  store double %39, ptr %9, align 8, !tbaa !136
  %40 = load ptr, ptr %6, align 8, !tbaa !3
  %41 = load i8, ptr %40, align 1, !tbaa !75
  %42 = sext i8 %41 to i32
  %43 = icmp ne i32 %42, 0
  br i1 %43, label %49, label %44

44:                                               ; preds = %27
  %45 = load ptr, ptr %7, align 8, !tbaa !3
  %46 = load i8, ptr %45, align 1, !tbaa !75
  %47 = sext i8 %46 to i32
  %48 = icmp ne i32 %47, 0
  br i1 %48, label %49, label %71

49:                                               ; preds = %44, %27
  %50 = load ptr, ptr %4, align 8, !tbaa !10
  %51 = getelementptr inbounds nuw %struct.Io_ReadBlif_t_, ptr %50, i32 0, i32 1
  %52 = load ptr, ptr %51, align 8, !tbaa !35
  %53 = call i32 @Extra_FileReaderGetLineNumber(ptr noundef %52, i32 noundef 0)
  %54 = load ptr, ptr %4, align 8, !tbaa !10
  %55 = getelementptr inbounds nuw %struct.Io_ReadBlif_t_, ptr %54, i32 0, i32 4
  store i32 %53, ptr %55, align 8, !tbaa !48
  %56 = load ptr, ptr %4, align 8, !tbaa !10
  %57 = getelementptr inbounds nuw %struct.Io_ReadBlif_t_, ptr %56, i32 0, i32 25
  %58 = getelementptr inbounds [1000 x i8], ptr %57, i64 0, i64 0
  %59 = load ptr, ptr %5, align 8, !tbaa !70
  %60 = getelementptr inbounds nuw %struct.Vec_Ptr_t_, ptr %59, i32 0, i32 2
  %61 = load ptr, ptr %60, align 8, !tbaa !45
  %62 = getelementptr inbounds ptr, ptr %61, i64 1
  %63 = load ptr, ptr %62, align 8, !tbaa !47
  %64 = load ptr, ptr %5, align 8, !tbaa !70
  %65 = getelementptr inbounds nuw %struct.Vec_Ptr_t_, ptr %64, i32 0, i32 2
  %66 = load ptr, ptr %65, align 8, !tbaa !45
  %67 = getelementptr inbounds ptr, ptr %66, i64 2
  %68 = load ptr, ptr %67, align 8, !tbaa !47
  %69 = call i32 (ptr, ptr, ...) @sprintf(ptr noundef %58, ptr noundef @.str.60, ptr noundef %63, ptr noundef %68) #10
  %70 = load ptr, ptr %4, align 8, !tbaa !10
  call void @Io_ReadBlifPrintErrorMessage(ptr noundef %70)
  store i32 1, ptr %3, align 4
  store i32 1, ptr %10, align 4
  br label %82

71:                                               ; preds = %44
  %72 = load double, ptr %8, align 8, !tbaa !136
  %73 = fptrunc double %72 to float
  %74 = load ptr, ptr %4, align 8, !tbaa !10
  %75 = getelementptr inbounds nuw %struct.Io_ReadBlif_t_, ptr %74, i32 0, i32 16
  store float %73, ptr %75, align 8, !tbaa !61
  %76 = load double, ptr %9, align 8, !tbaa !136
  %77 = fptrunc double %76 to float
  %78 = load ptr, ptr %4, align 8, !tbaa !10
  %79 = getelementptr inbounds nuw %struct.Io_ReadBlif_t_, ptr %78, i32 0, i32 17
  store float %77, ptr %79, align 4, !tbaa !62
  %80 = load ptr, ptr %4, align 8, !tbaa !10
  %81 = getelementptr inbounds nuw %struct.Io_ReadBlif_t_, ptr %80, i32 0, i32 22
  store i32 1, ptr %81, align 8, !tbaa !60
  store i32 0, ptr %3, align 4
  store i32 1, ptr %10, align 4
  br label %82

82:                                               ; preds = %71, %49, %15
  call void @llvm.lifetime.end.p0(i64 8, ptr %9) #10
  call void @llvm.lifetime.end.p0(i64 8, ptr %8) #10
  call void @llvm.lifetime.end.p0(i64 8, ptr %7) #10
  call void @llvm.lifetime.end.p0(i64 8, ptr %6) #10
  %83 = load i32, ptr %3, align 4
  ret i32 %83
}