; Function Attrs: nounwind uwtable
define internal fastcc range(i32 0, 2) i32 @Io_ReadBlifNetworkDefaultInputDrive(ptr noundef nonnull %0, ptr noundef readonly captures(none) %1) unnamed_addr #0 {
  %3 = alloca ptr, align 8
  %4 = alloca ptr, align 8
  call void @llvm.lifetime.start.p0(i64 8, ptr nonnull %3) #14
  call void @llvm.lifetime.start.p0(i64 8, ptr nonnull %4) #14
  %5 = getelementptr inbounds nuw i8, ptr %1, i64 4
  %6 = load i32, ptr %5, align 4, !tbaa !20
  %.not = icmp eq i32 %6, 3
  br i1 %.not, label %22, label %7

7:                                                ; preds = %2
  %8 = getelementptr inbounds nuw i8, ptr %0, i64 8
  %9 = load ptr, ptr %8, align 8, !tbaa !17
  %10 = tail call i32 @Extra_FileReaderGetLineNumber(ptr noundef %9, i32 noundef 0) #14
  %11 = getelementptr inbounds nuw i8, ptr %0, i64 32
  store i32 %10, ptr %11, align 8, !tbaa !41
  %12 = getelementptr inbounds nuw i8, ptr %0, i64 152
  tail call void @llvm.memcpy.p0.p0.i64(ptr noundef nonnull align 1 dereferenceable(56) %12, ptr noundef nonnull align 1 dereferenceable(56) @.str.59, i64 56, i1 false)
  %13 = getelementptr inbounds nuw i8, ptr %0, i64 1152
  store i32 1, ptr %13, align 8, !tbaa !42
  %14 = icmp eq i32 %10, 0
  %15 = getelementptr inbounds nuw i8, ptr %0, i64 144
  %16 = load ptr, ptr %15, align 8, !tbaa !19
  %17 = load ptr, ptr %0, align 8, !tbaa !3
  br i1 %14, label %18, label %20

18:                                               ; preds = %7
  %19 = tail call i32 (ptr, ptr, ...) @fprintf(ptr noundef %16, ptr noundef nonnull @.str.68, ptr noundef %17, ptr noundef nonnull %12) #14
  br label %Io_ReadBlifPrintErrorMessage.exit

20:                                               ; preds = %7
  %21 = tail call i32 (ptr, ptr, ...) @fprintf(ptr noundef %16, ptr noundef nonnull @.str.69, ptr noundef %17, i32 noundef %10, ptr noundef nonnull %12) #14
  br label %Io_ReadBlifPrintErrorMessage.exit

22:                                               ; preds = %2
  %23 = getelementptr inbounds nuw i8, ptr %1, i64 8
  %24 = load ptr, ptr %23, align 8, !tbaa !23
  %25 = getelementptr inbounds nuw i8, ptr %24, i64 8
  %26 = load ptr, ptr %25, align 8, !tbaa !40
  %27 = call double @strtod(ptr noundef %26, ptr noundef nonnull %3) #14
  %28 = load ptr, ptr %23, align 8, !tbaa !23
  %29 = getelementptr inbounds nuw i8, ptr %28, i64 16
  %30 = load ptr, ptr %29, align 8, !tbaa !40
  %31 = call double @strtod(ptr noundef %30, ptr noundef nonnull %4) #14
  %32 = load ptr, ptr %3, align 8, !tbaa !110
  %33 = load i8, ptr %32, align 1, !tbaa !73
  %.not18 = icmp eq i8 %33, 0
  br i1 %.not18, label %34, label %37

34:                                               ; preds = %22
  %35 = load ptr, ptr %4, align 8, !tbaa !110
  %36 = load i8, ptr %35, align 1, !tbaa !73
  %.not19 = icmp eq i8 %36, 0
  br i1 %.not19, label %59, label %37

37:                                               ; preds = %34, %22
  %38 = getelementptr inbounds nuw i8, ptr %0, i64 8
  %39 = load ptr, ptr %38, align 8, !tbaa !17
  %40 = tail call i32 @Extra_FileReaderGetLineNumber(ptr noundef %39, i32 noundef 0) #14
  %41 = getelementptr inbounds nuw i8, ptr %0, i64 32
  store i32 %40, ptr %41, align 8, !tbaa !41
  %42 = getelementptr inbounds nuw i8, ptr %0, i64 152
  %43 = load ptr, ptr %23, align 8, !tbaa !23
  %44 = getelementptr inbounds nuw i8, ptr %43, i64 8
  %45 = load ptr, ptr %44, align 8, !tbaa !40
  %46 = getelementptr inbounds nuw i8, ptr %43, i64 16
  %47 = load ptr, ptr %46, align 8, !tbaa !40
  %48 = tail call i32 (ptr, ptr, ...) @sprintf(ptr noundef nonnull dereferenceable(1) %42, ptr noundef nonnull dereferenceable(1) @.str.60, ptr noundef %45, ptr noundef %47) #14
  %49 = getelementptr inbounds nuw i8, ptr %0, i64 1152
  store i32 1, ptr %49, align 8, !tbaa !42
  %50 = load i32, ptr %41, align 8, !tbaa !41
  %51 = icmp eq i32 %50, 0
  %52 = getelementptr inbounds nuw i8, ptr %0, i64 144
  %53 = load ptr, ptr %52, align 8, !tbaa !19
  %54 = load ptr, ptr %0, align 8, !tbaa !3
  br i1 %51, label %55, label %57

55:                                               ; preds = %37
  %56 = tail call i32 (ptr, ptr, ...) @fprintf(ptr noundef %53, ptr noundef nonnull @.str.68, ptr noundef %54, ptr noundef nonnull %42) #14
  br label %Io_ReadBlifPrintErrorMessage.exit

57:                                               ; preds = %37
  %58 = tail call i32 (ptr, ptr, ...) @fprintf(ptr noundef %53, ptr noundef nonnull @.str.69, ptr noundef %54, i32 noundef %50, ptr noundef nonnull %42) #14
  br label %Io_ReadBlifPrintErrorMessage.exit

59:                                               ; preds = %34
  %60 = fptrunc double %27 to float
  %61 = getelementptr inbounds nuw i8, ptr %0, i64 112
  store float %60, ptr %61, align 8, !tbaa !62
  %62 = fptrunc double %31 to float
  %63 = getelementptr inbounds nuw i8, ptr %0, i64 116
  store float %62, ptr %63, align 4, !tbaa !63
  %64 = getelementptr inbounds nuw i8, ptr %0, i64 136
  store i32 1, ptr %64, align 8, !tbaa !61
  br label %Io_ReadBlifPrintErrorMessage.exit

Io_ReadBlifPrintErrorMessage.exit:                ; preds = %57, %55, %20, %18, %59
  %.0 = phi i32 [ 0, %59 ], [ 1, %18 ], [ 1, %20 ], [ 1, %55 ], [ 1, %57 ]
  call void @llvm.lifetime.end.p0(i64 8, ptr nonnull %4) #14
  call void @llvm.lifetime.end.p0(i64 8, ptr nonnull %3) #14
  ret i32 %.0
}